; Function Attrs: nounwind uwtable
define range(i32 -1, 1) i32 @H5VLnative_addr_to_token(i64 noundef %0, i64 noundef %1, ptr noundef %2) local_unnamed_addr #0 {
  %4 = alloca %struct.H5CX_node_t, align 8
  call void @llvm.lifetime.start.p0(i64 480, ptr nonnull %4) #6
  call void @llvm.memset.p0.i64(ptr noundef nonnull align 8 dereferenceable(480) %4, i8 0, i64 480, i1 false)
  %5 = load i8, ptr @H5_libinit_g, align 1, !tbaa !17, !range !18, !noundef !19
  %6 = trunc nuw i8 %5 to i1
  %7 = load i8, ptr @H5_libterm_g, align 1, !range !18
  %8 = trunc nuw i8 %7 to i1
  %9 = select i1 %6, i1 true, i1 %8
  br i1 %9, label %17, label %10, !prof !20

10:                                               ; preds = %3
  %11 = tail call i32 @H5_init_library() #6
  %12 = icmp slt i32 %11, 0
  br i1 %12, label %13, label %17, !prof !21

13:                                               ; preds = %10
  %14 = load i64, ptr @H5E_FUNC_g, align 8, !tbaa !8
  %15 = load i64, ptr @H5E_CANTINIT_g, align 8, !tbaa !8
  %16 = tail call i32 (ptr, ptr, i32, i64, i64, ptr, ...) @H5E_printf_stack(ptr noundef nonnull @.str, ptr noundef nonnull @__func__.H5VLnative_addr_to_token, i32 noundef 380, i64 noundef %14, i64 noundef %15, ptr noundef nonnull @.str.6) #6
  br label %.thread28

17:                                               ; preds = %3, %10
  %18 = call i32 @H5CX_push(ptr noundef nonnull %4) #6
  %19 = icmp slt i32 %18, 0
  br i1 %19, label %20, label %24, !prof !21

20:                                               ; preds = %17
  %21 = load i64, ptr @H5E_FUNC_g, align 8, !tbaa !8
  %22 = load i64, ptr @H5E_CANTSET_g, align 8, !tbaa !8
  %23 = call i32 (ptr, ptr, i32, i64, i64, ptr, ...) @H5E_printf_stack(ptr noundef nonnull @.str, ptr noundef nonnull @__func__.H5VLnative_addr_to_token, i32 noundef 380, i64 noundef %21, i64 noundef %22, ptr noundef nonnull @.str.7) #6
  br label %.thread28

24:                                               ; preds = %17
  %25 = call i32 @H5E_clear_stack() #6
  %26 = icmp eq ptr %2, null
  br i1 %26, label %27, label %31, !prof !22

27:                                               ; preds = %24
  %28 = load i64, ptr @H5E_ARGS_g, align 8, !tbaa !8
  %29 = load i64, ptr @H5E_BADVALUE_g, align 8, !tbaa !8
  %30 = call i32 (ptr, ptr, i32, i64, i64, ptr, ...) @H5E_printf_stack(ptr noundef nonnull @.str, ptr noundef nonnull @__func__.H5VLnative_addr_to_token, i32 noundef 384, i64 noundef %28, i64 noundef %29, ptr noundef nonnull @.str.8) #6
  br label %.thread34

31:                                               ; preds = %24
  %32 = call i32 @H5I_get_type(i64 noundef %0) #6
  %33 = icmp slt i32 %32, 0
  br i1 %33, label %34, label %38, !prof !22

34:                                               ; preds = %31
  %35 = load i64, ptr @H5E_VOL_g, align 8, !tbaa !8
  %36 = load i64, ptr @H5E_BADTYPE_g, align 8, !tbaa !8
  %37 = call i32 (ptr, ptr, i32, i64, i64, ptr, ...) @H5E_printf_stack(ptr noundef nonnull @.str, ptr noundef nonnull @__func__.H5VLnative_addr_to_token, i32 noundef 388, i64 noundef %35, i64 noundef %36, ptr noundef nonnull @.str.3) #6
  br label %.thread34

38:                                               ; preds = %31
  %39 = call ptr @H5VL_object(i64 noundef %0) #6
  %40 = icmp eq ptr %39, null
  br i1 %40, label %41, label %45, !prof !22

41:                                               ; preds = %38
  %42 = load i64, ptr @H5E_VOL_g, align 8, !tbaa !8
  %43 = load i64, ptr @H5E_CANTGET_g, align 8, !tbaa !8
  %44 = call i32 (ptr, ptr, i32, i64, i64, ptr, ...) @H5E_printf_stack(ptr noundef nonnull @.str, ptr noundef nonnull @__func__.H5VLnative_addr_to_token, i32 noundef 392, i64 noundef %42, i64 noundef %43, ptr noundef nonnull @.str.9) #6
  br label %.thread34

45:                                               ; preds = %38
  %46 = call i32 @H5VL_native_addr_to_token(ptr noundef nonnull %39, i32 noundef %32, i64 noundef %1, ptr noundef nonnull %2)
  %47 = icmp slt i32 %46, 0
  br i1 %47, label %48, label %53, !prof !22

48:                                               ; preds = %45
  %49 = load i64, ptr @H5E_VOL_g, align 8, !tbaa !8
  %50 = load i64, ptr @H5E_CANTSERIALIZE_g, align 8, !tbaa !8
  %51 = call i32 (ptr, ptr, i32, i64, i64, ptr, ...) @H5E_printf_stack(ptr noundef nonnull @.str, ptr noundef nonnull @__func__.H5VLnative_addr_to_token, i32 noundef 414, i64 noundef %49, i64 noundef %50, ptr noundef nonnull @.str.10) #6
  br label %.thread34

.thread34:                                        ; preds = %48, %41, %34, %27
  %52 = call i32 @H5CX_pop(i1 noundef zeroext true) #6
  br label %.thread28

53:                                               ; preds = %45
  %54 = call i32 @H5CX_pop(i1 noundef zeroext true) #6
  br label %56

.thread28:                                        ; preds = %20, %13, %.thread34
  %55 = call i32 @H5E_dump_api_stack() #6
  br label %56

56:                                               ; preds = %53, %.thread28
  %.0162331 = phi i32 [ -1, %.thread28 ], [ 0, %53 ]
  call void @llvm.lifetime.end.p0(i64 480, ptr nonnull %4) #6
  ret i32 %.0162331
}